target datalayout = "e-m:e-p270:32:32-p271:32:32-p272:64:64-i64:64-i128:128-f80:128-n8:16:32:64-S128"
target triple = "x86_64-pc-linux-gnu"

; Function Attrs: nounwind uwtable
define dso_local i32 @rleStringToByteArray(ptr noundef %0, i32 noundef %1, ptr noundef %2, i32 noundef %3, ptr noundef %4) #0 {
  %6 = alloca i32, align 4
  %7 = alloca ptr, align 8
  %8 = alloca i32, align 4
  %9 = alloca ptr, align 8
  %10 = alloca i32, align 4
  %11 = alloca ptr, align 8
  %12 = alloca i32, align 4
  %13 = alloca i8, align 1
  %14 = alloca i16, align 2
  %15 = alloca i32, align 4
  %16 = alloca i32, align 4
  %17 = alloca i32, align 4
  %18 = alloca i32, align 4
  %19 = alloca i32, align 4
  %20 = alloca i8, align 1
  %21 = alloca i32, align 4
  store ptr %0, ptr %7, align 8, !tbaa !4
  store i32 %1, ptr %8, align 4, !tbaa !9
  store ptr %2, ptr %9, align 8, !tbaa !17
  store i32 %3, ptr %10, align 4, !tbaa !9
  store ptr %4, ptr %11, align 8, !tbaa !11
  call void @llvm.lifetime.start.p0(i64 4, ptr %12) #4
  store i32 0, ptr %12, align 4, !tbaa !9
  call void @llvm.lifetime.start.p0(i64 1, ptr %13) #4
  store i8 1, ptr %13, align 1, !tbaa !19
  call void @llvm.lifetime.start.p0(i64 2, ptr %14) #4
  store i16 0, ptr %14, align 2, !tbaa !12
  call void @llvm.lifetime.start.p0(i64 4, ptr %15) #4
  store i32 0, ptr %15, align 4, !tbaa !9
  call void @llvm.lifetime.start.p0(i64 4, ptr %16) #4
  store i32 0, ptr %16, align 4, !tbaa !9
  call void @llvm.lifetime.start.p0(i64 4, ptr %17) #4
  store i32 2, ptr %17, align 4, !tbaa !9
  call void @llvm.lifetime.start.p0(i64 4, ptr %18) #4
  store i32 0, ptr %18, align 4, !tbaa !9
  %22 = load ptr, ptr %11, align 8, !tbaa !11
  %23 = icmp ne ptr %22, null
  br i1 %23, label %24, label %28

24:                                               ; preds = %5
  %25 = load ptr, ptr %11, align 8, !tbaa !11
  %26 = load i32, ptr %25, align 4, !tbaa !9
  %27 = icmp sgt i32 %26, 0
  br i1 %27, label %28, label %29

28:                                               ; preds = %24, %5
  store i32 0, ptr %6, align 4
  store i32 1, ptr %19, align 4
  br label %158

29:                                               ; preds = %24
  %30 = load i32, ptr %8, align 4, !tbaa !9
  %31 = icmp eq i32 %30, -1
  br i1 %31, label %32, label %35

32:                                               ; preds = %29
  %33 = load ptr, ptr %7, align 8, !tbaa !4
  %34 = call i32 @u_strlen_77(ptr noundef %33)
  store i32 %34, ptr %8, align 4, !tbaa !9
  br label %35

35:                                               ; preds = %32, %29
  %36 = load i32, ptr %8, align 4, !tbaa !9
  %37 = icmp sle i32 %36, 2
  br i1 %37, label %38, label %39

38:                                               ; preds = %35
  store i32 2, ptr %6, align 4
  store i32 1, ptr %19, align 4
  br label %158

39:                                               ; preds = %35
  %40 = load ptr, ptr %7, align 8, !tbaa !4
  %41 = getelementptr inbounds i16, ptr %40, i64 0
  %42 = load i16, ptr %41, align 2, !tbaa !12
  %43 = zext i16 %42 to i32
  %44 = shl i32 %43, 16
  %45 = load ptr, ptr %7, align 8, !tbaa !4
  %46 = getelementptr inbounds i16, ptr %45, i64 1
  %47 = load i16, ptr %46, align 2, !tbaa !12
  %48 = zext i16 %47 to i32
  %49 = or i32 %44, %48
  store i32 %49, ptr %12, align 4, !tbaa !9
  %50 = load ptr, ptr %9, align 8, !tbaa !17
  %51 = icmp eq ptr %50, null
  br i1 %51, label %52, label %54

52:                                               ; preds = %39
  %53 = load i32, ptr %12, align 4, !tbaa !9
  store i32 %53, ptr %6, align 4
  store i32 1, ptr %19, align 4
  br label %158

54:                                               ; preds = %39
  %55 = load i32, ptr %10, align 4, !tbaa !9
  %56 = load i32, ptr %12, align 4, !tbaa !9
  %57 = icmp slt i32 %55, %56
  br i1 %57, label %58, label %61

58:                                               ; preds = %54
  %59 = load ptr, ptr %11, align 8, !tbaa !11
  store i32 15, ptr %59, align 4, !tbaa !9
  %60 = load i32, ptr %12, align 4, !tbaa !9
  store i32 %60, ptr %6, align 4
  store i32 1, ptr %19, align 4
  br label %158

61:                                               ; preds = %54
  br label %62

62:                                               ; preds = %143, %61
  %63 = load i32, ptr %18, align 4, !tbaa !9
  %64 = load i32, ptr %10, align 4, !tbaa !9
  %65 = icmp slt i32 %63, %64
  br i1 %65, label %66, label %144

66:                                               ; preds = %62
  call void @llvm.lifetime.start.p0(i64 1, ptr %20) #4
  %67 = load i8, ptr %13, align 1, !tbaa !19
  %68 = icmp ne i8 %67, 0
  br i1 %68, label %69, label %80

69:                                               ; preds = %66
  %70 = load ptr, ptr %7, align 8, !tbaa !4
  %71 = load i32, ptr %17, align 4, !tbaa !9
  %72 = add nsw i32 %71, 1
  store i32 %72, ptr %17, align 4, !tbaa !9
  %73 = sext i32 %71 to i64
  %74 = getelementptr inbounds i16, ptr %70, i64 %73
  %75 = load i16, ptr %74, align 2, !tbaa !12
  store i16 %75, ptr %14, align 2, !tbaa !12
  %76 = load i16, ptr %14, align 2, !tbaa !12
  %77 = zext i16 %76 to i32
  %78 = ashr i32 %77, 8
  %79 = trunc i32 %78 to i8
  store i8 %79, ptr %20, align 1, !tbaa !19
  store i8 0, ptr %13, align 1, !tbaa !19
  br label %85

80:                                               ; preds = %66
  %81 = load i16, ptr %14, align 2, !tbaa !12
  %82 = zext i16 %81 to i32
  %83 = and i32 %82, 255
  %84 = trunc i32 %83 to i8
  store i8 %84, ptr %20, align 1, !tbaa !19
  store i8 1, ptr %13, align 1, !tbaa !19
  br label %85

85:                                               ; preds = %80, %69
  %86 = load i32, ptr %15, align 4, !tbaa !9
  switch i32 %86, label %140 [
    i32 0, label %87
    i32 1, label %100
    i32 2, label %114
  ]

87:                                               ; preds = %85
  %88 = load i8, ptr %20, align 1, !tbaa !19
  %89 = zext i8 %88 to i32
  %90 = icmp eq i32 %89, 165
  br i1 %90, label %91, label %92

91:                                               ; preds = %87
  store i32 1, ptr %15, align 4, !tbaa !9
  br label %99

92:                                               ; preds = %87
  %93 = load i8, ptr %20, align 1, !tbaa !19
  %94 = load ptr, ptr %9, align 8, !tbaa !17
  %95 = load i32, ptr %18, align 4, !tbaa !9
  %96 = add nsw i32 %95, 1
  store i32 %96, ptr %18, align 4, !tbaa !9
  %97 = sext i32 %95 to i64
  %98 = getelementptr inbounds i8, ptr %94, i64 %97
  store i8 %93, ptr %98, align 1, !tbaa !19
  br label %99

99:                                               ; preds = %92, %91
  br label %140

100:                                              ; preds = %85
  %101 = load i8, ptr %20, align 1, !tbaa !19
  %102 = zext i8 %101 to i32
  %103 = icmp eq i32 %102, 165
  br i1 %103, label %104, label %110

104:                                              ; preds = %100
  %105 = load ptr, ptr %9, align 8, !tbaa !17
  %106 = load i32, ptr %18, align 4, !tbaa !9
  %107 = add nsw i32 %106, 1
  store i32 %107, ptr %18, align 4, !tbaa !9
  %108 = sext i32 %106 to i64
  %109 = getelementptr inbounds i8, ptr %105, i64 %108
  store i8 -91, ptr %109, align 1, !tbaa !19
  store i32 0, ptr %15, align 4, !tbaa !9
  br label %113

110:                                              ; preds = %100
  %111 = load i8, ptr %20, align 1, !tbaa !19
  %112 = zext i8 %111 to i32
  store i32 %112, ptr %16, align 4, !tbaa !9
  store i32 2, ptr %15, align 4, !tbaa !9
  br label %113

113:                                              ; preds = %110, %104
  br label %140

114:                                              ; preds = %85
  call void @llvm.lifetime.start.p0(i64 4, ptr %21) #4
  store i32 0, ptr %21, align 4, !tbaa !9
  br label %115

115:                                              ; preds = %134, %114
  %116 = load i32, ptr %21, align 4, !tbaa !9
  %117 = load i32, ptr %16, align 4, !tbaa !9
  %118 = icmp slt i32 %116, %117
  br i1 %118, label %119, label %137

119:                                              ; preds = %115
  %120 = load i32, ptr %18, align 4, !tbaa !9
  %121 = load i32, ptr %10, align 4, !tbaa !9
  %122 = icmp slt i32 %120, %121
  br i1 %122, label %123, label %130

123:                                              ; preds = %119
  %124 = load i8, ptr %20, align 1, !tbaa !19
  %125 = load ptr, ptr %9, align 8, !tbaa !17
  %126 = load i32, ptr %18, align 4, !tbaa !9
  %127 = add nsw i32 %126, 1
  store i32 %127, ptr %18, align 4, !tbaa !9
  %128 = sext i32 %126 to i64
  %129 = getelementptr inbounds i8, ptr %125, i64 %128
  store i8 %124, ptr %129, align 1, !tbaa !19
  br label %133

130:                                              ; preds = %119
  %131 = load ptr, ptr %11, align 8, !tbaa !11
  store i32 15, ptr %131, align 4, !tbaa !9
  %132 = load i32, ptr %18, align 4, !tbaa !9
  store i32 %132, ptr %6, align 4
  store i32 1, ptr %19, align 4
  br label %138

133:                                              ; preds = %123
  br label %134

134:                                              ; preds = %133
  %135 = load i32, ptr %21, align 4, !tbaa !9
  %136 = add nsw i32 %135, 1
  store i32 %136, ptr %21, align 4, !tbaa !9
  br label %115, !llvm.loop !24

137:                                              ; preds = %115
  store i32 0, ptr %15, align 4, !tbaa !9
  store i32 4, ptr %19, align 4
  br label %138

138:                                              ; preds = %137, %130
  call void @llvm.lifetime.end.p0(i64 4, ptr %21) #4
  %139 = load i32, ptr %19, align 4
  switch i32 %139, label %141 [
    i32 4, label %140
  ]

140:                                              ; preds = %85, %138, %113, %99
  store i32 0, ptr %19, align 4
  br label %141

141:                                              ; preds = %140, %138
  call void @llvm.lifetime.end.p0(i64 1, ptr %20) #4
  %142 = load i32, ptr %19, align 4
  switch i32 %142, label %158 [
    i32 0, label %143
  ]

143:                                              ; preds = %141
  br label %62, !llvm.loop !25

144:                                              ; preds = %62
  %145 = load i32, ptr %15, align 4, !tbaa !9
  %146 = icmp ne i32 %145, 0
  br i1 %146, label %147, label %149

147:                                              ; preds = %144
  %148 = load ptr, ptr %11, align 8, !tbaa !11
  store i32 5, ptr %148, align 4, !tbaa !9
  store i32 0, ptr %6, align 4
  store i32 1, ptr %19, align 4
  br label %158

149:                                              ; preds = %144
  %150 = load i32, ptr %17, align 4, !tbaa !9
  %151 = load i32, ptr %8, align 4, !tbaa !9
  %152 = icmp ne i32 %150, %151
  br i1 %152, label %153, label %156

153:                                              ; preds = %149
  %154 = load ptr, ptr %11, align 8, !tbaa !11
  store i32 5, ptr %154, align 4, !tbaa !9
  %155 = load i32, ptr %18, align 4, !tbaa !9
  store i32 %155, ptr %6, align 4
  store i32 1, ptr %19, align 4
  br label %158

156:                                              ; preds = %149
  %157 = load i32, ptr %18, align 4, !tbaa !9
  store i32 %157, ptr %6, align 4
  store i32 1, ptr %19, align 4
  br label %158

158:                                              ; preds = %156, %153, %147, %141, %58, %52, %38, %28
  call void @llvm.lifetime.end.p0(i64 4, ptr %18) #4
  call void @llvm.lifetime.end.p0(i64 4, ptr %17) #4
  call void @llvm.lifetime.end.p0(i64 4, ptr %16) #4
  call void @llvm.lifetime.end.p0(i64 4, ptr %15) #4
  call void @llvm.lifetime.end.p0(i64 2, ptr %14) #4
  call void @llvm.lifetime.end.p0(i64 1, ptr %13) #4
  call void @llvm.lifetime.end.p0(i64 4, ptr %12) #4
  %159 = load i32, ptr %6, align 4
  ret i32 %159
}