; Function Attrs: nounwind uwtable
define dso_local i32 @rleStringToByteArray(ptr noundef %0, i32 noundef %1, ptr noundef writeonly %2, i32 noundef %3, ptr noundef %4) local_unnamed_addr #3 {
  %.not = icmp eq ptr %4, null
  br i1 %.not, label %69, label %6

6:                                                ; preds = %5
  %7 = load i32, ptr %4, align 4, !tbaa !8
  %8 = icmp sgt i32 %7, 0
  br i1 %8, label %69, label %9

9:                                                ; preds = %6
  %10 = icmp eq i32 %1, -1
  br i1 %10, label %11, label %13

11:                                               ; preds = %9
  %12 = tail call i32 @u_strlen_77(ptr noundef %0) #6
  br label %13

13:                                               ; preds = %11, %9
  %.070 = phi i32 [ %12, %11 ], [ %1, %9 ]
  %14 = icmp slt i32 %.070, 3
  br i1 %14, label %69, label %15

15:                                               ; preds = %13
  %16 = load i16, ptr %0, align 2, !tbaa !4
  %17 = zext i16 %16 to i32
  %18 = shl nuw i32 %17, 16
  %19 = getelementptr inbounds nuw i8, ptr %0, i64 2
  %20 = load i16, ptr %19, align 2, !tbaa !4
  %21 = zext i16 %20 to i32
  %22 = or disjoint i32 %18, %21
  %23 = icmp eq ptr %2, null
  br i1 %23, label %69, label %24

24:                                               ; preds = %15
  %25 = icmp slt i32 %3, %22
  br i1 %25, label %.sink.split, label %.preheader85

.preheader85:                                     ; preds = %24
  %26 = icmp sgt i32 %3, 0
  br i1 %26, label %.lr.ph.lr.ph, label %.loopexit

.lr.ph.split.us.preheader:                        ; preds = %.lr.ph.lr.ph, %.outer86.backedge
  %.051.ph91161 = phi i32 [ %.051.ph91.be, %.outer86.backedge ], [ %.051.ph200, %.lr.ph.lr.ph ]
  %.053.ph90160 = phi i32 [ %.154.us, %.outer86.backedge ], [ %.053.ph199, %.lr.ph.lr.ph ]
  %.058.ph89159 = phi i32 [ 0, %.outer86.backedge ], [ %.058.ph197, %.lr.ph.lr.ph ]
  %.062.ph88158 = phi i16 [ %.163.us, %.outer86.backedge ], [ %.062.ph196, %.lr.ph.lr.ph ]
  %.064.ph87157 = phi i8 [ %.165.us, %.outer86.backedge ], [ %.064.ph195, %.lr.ph.lr.ph ]
  br label %.lr.ph.split.us

.lr.ph.split.us:                                  ; preds = %34, %.lr.ph.split.us.preheader
  %.053127.us = phi i32 [ %.053.ph90160, %.lr.ph.split.us.preheader ], [ %.154.us, %34 ]
  %.058126.us = phi i32 [ %.058.ph89159, %.lr.ph.split.us.preheader ], [ 1, %34 ]
  %.062125.us = phi i16 [ %.062.ph88158, %.lr.ph.split.us.preheader ], [ %.163.us, %34 ]
  %.064124.us = phi i8 [ %.064.ph87157, %.lr.ph.split.us.preheader ], [ %.165.us, %34 ]
  %.not79.us = icmp eq i8 %.064124.us, 0
  br i1 %.not79.us, label %33, label %27

27:                                               ; preds = %.lr.ph.split.us
  %28 = add nsw i32 %.053127.us, 1
  %29 = sext i32 %.053127.us to i64
  %30 = getelementptr inbounds i16, ptr %0, i64 %29
  %31 = load i16, ptr %30, align 2, !tbaa !4
  %32 = lshr i16 %31, 8
  br label %33

33:                                               ; preds = %27, %.lr.ph.split.us
  %.165.us = phi i8 [ 0, %27 ], [ 1, %.lr.ph.split.us ]
  %.163.us = phi i16 [ %31, %27 ], [ %.062125.us, %.lr.ph.split.us ]
  %.154.us = phi i32 [ %28, %27 ], [ %.053127.us, %.lr.ph.split.us ]
  %.049.in.us = phi i16 [ %32, %27 ], [ %.062125.us, %.lr.ph.split.us ]
  switch i32 %.058126.us, label %default.unreachable [
    i32 0, label %34
    i32 1, label %.split.us
    i32 2, label %.outer86.backedge
  ]

34:                                               ; preds = %33
  %.049.mask81.us = and i16 %.049.in.us, 255
  %35 = icmp eq i16 %.049.mask81.us, 165
  br i1 %35, label %.lr.ph.split.us, label %.split141.us

.split141.us:                                     ; preds = %34
  %.049.le = trunc i16 %.049.in.us to i8
  br label %.outer86.backedge.sink.split

.split.us:                                        ; preds = %33
  %.049.mask = and i16 %.049.in.us, 255
  %36 = icmp eq i16 %.049.mask, 165
  br i1 %36, label %.outer86.backedge.sink.split, label %.outer

.outer86.backedge.sink.split:                     ; preds = %.split.us, %.split141.us
  %.sink = phi i8 [ %.049.le, %.split141.us ], [ -91, %.split.us ]
  %37 = add nsw i32 %.051.ph91161, 1
  %38 = sext i32 %.051.ph91161 to i64
  %39 = getelementptr inbounds i8, ptr %2, i64 %38
  store i8 %.sink, ptr %39, align 1, !tbaa !13
  br label %.outer86.backedge

.outer86.backedge:                                ; preds = %33, %.outer86.backedge.sink.split
  %.051.ph91.be = phi i32 [ %37, %.outer86.backedge.sink.split ], [ %.051.ph91161, %33 ]
  %40 = icmp slt i32 %.051.ph91.be, %3
  br i1 %40, label %.lr.ph.split.us.preheader, label %.loopexit, !llvm.loop !20

.outer:                                           ; preds = %.split.us172, %.split.us
  %.us-phi190 = phi i32 [ %.051.ph91161, %.split.us ], [ %.051.ph91161.us, %.split.us172 ]
  %.us-phi191 = phi i16 [ %.049.mask, %.split.us ], [ %.049.mask.us, %.split.us172 ]
  %.us-phi192 = phi i8 [ %.165.us, %.split.us ], [ %.165.us.us, %.split.us172 ]
  %.us-phi193 = phi i16 [ %.163.us, %.split.us ], [ %.163.us.us, %.split.us172 ]
  %.us-phi194 = phi i32 [ %.154.us, %.split.us ], [ %.154.us.us, %.split.us172 ]
  %41 = zext nneg i16 %.us-phi191 to i32
  %42 = icmp slt i32 %.us-phi190, %3
  br i1 %42, label %.lr.ph.lr.ph, label %.sink.split, !llvm.loop !20

.lr.ph.lr.ph:                                     ; preds = %.preheader85, %.outer
  %.051.ph200 = phi i32 [ %.us-phi190, %.outer ], [ 0, %.preheader85 ]
  %.053.ph199 = phi i32 [ %.us-phi194, %.outer ], [ 2, %.preheader85 ]
  %.055.ph198 = phi i32 [ %41, %.outer ], [ 0, %.preheader85 ]
  %.058.ph197 = phi i32 [ 2, %.outer ], [ 0, %.preheader85 ]
  %.062.ph196 = phi i16 [ %.us-phi193, %.outer ], [ 0, %.preheader85 ]
  %.064.ph195 = phi i8 [ %.us-phi192, %.outer ], [ 1, %.preheader85 ]
  %.055.ph198.fr = freeze i32 %.055.ph198
  %.not80152.not = icmp eq i32 %.055.ph198.fr, 0
  br i1 %.not80152.not, label %.lr.ph.split.us.preheader, label %.lr.ph.split.us.us.preheader

.lr.ph.split.us.us.preheader:                     ; preds = %.lr.ph.lr.ph, %.outer86.backedge.us
  %.051.ph91161.us = phi i32 [ %.051.ph91.be.us, %.outer86.backedge.us ], [ %.051.ph200, %.lr.ph.lr.ph ]
  %.053.ph90160.us = phi i32 [ %.154.us.us, %.outer86.backedge.us ], [ %.053.ph199, %.lr.ph.lr.ph ]
  %.058.ph89159.us = phi i32 [ 0, %.outer86.backedge.us ], [ %.058.ph197, %.lr.ph.lr.ph ]
  %.062.ph88158.us = phi i16 [ %.163.us.us, %.outer86.backedge.us ], [ %.062.ph196, %.lr.ph.lr.ph ]
  %.064.ph87157.us = phi i8 [ %.165.us.us, %.outer86.backedge.us ], [ %.064.ph195, %.lr.ph.lr.ph ]
  br label %.lr.ph.split.us.us

43:                                               ; preds = %.preheader.us, %44
  %indvars.iv = phi i64 [ %54, %.preheader.us ], [ %indvars.iv.next, %44 ]
  %.0154.us = phi i32 [ 0, %.preheader.us ], [ %46, %44 ]
  %exitcond.not = icmp eq i32 %.0154.us, %55
  br i1 %exitcond.not, label %.thread, label %44

44:                                               ; preds = %43
  %indvars.iv.next = add nsw i64 %indvars.iv, 1
  %45 = getelementptr inbounds i8, ptr %2, i64 %indvars.iv
  store i8 %.049.le122.us, ptr %45, align 1, !tbaa !13
  %46 = add nuw i32 %.0154.us, 1
  %exitcond246.not = icmp eq i32 %46, %.055.ph198.fr
  br i1 %exitcond246.not, label %.outer86.backedge.us.loopexit, label %43, !llvm.loop !21

47:                                               ; preds = %.split.us172
  %48 = add nsw i32 %.051.ph91161.us, 1
  %49 = sext i32 %.051.ph91161.us to i64
  %50 = getelementptr inbounds i8, ptr %2, i64 %49
  store i8 -91, ptr %50, align 1, !tbaa !13
  br label %.outer86.backedge.us

.outer86.backedge.us.loopexit:                    ; preds = %44
  %51 = trunc nsw i64 %indvars.iv.next to i32
  br label %.outer86.backedge.us

.outer86.backedge.us:                             ; preds = %.outer86.backedge.us.loopexit, %.split141.us174, %47
  %.051.ph91.be.us = phi i32 [ %56, %.split141.us174 ], [ %48, %47 ], [ %51, %.outer86.backedge.us.loopexit ]
  %52 = icmp slt i32 %.051.ph91.be.us, %3
  br i1 %52, label %.lr.ph.split.us.us.preheader, label %.loopexit, !llvm.loop !20

.split.us172:                                     ; preds = %65
  %.049.mask.us = and i16 %.049.in.us.us, 255
  %53 = icmp eq i16 %.049.mask.us, 165
  br i1 %53, label %47, label %.outer

.preheader.us:                                    ; preds = %65
  %.049.le122.us = trunc i16 %.049.in.us.us to i8
  %54 = sext i32 %.051.ph91161.us to i64
  %smax = tail call i32 @llvm.smax.i32(i32 %.051.ph91161.us, i32 %3)
  %55 = sub i32 %smax, %.051.ph91161.us
  br label %43

.split141.us174:                                  ; preds = %66
  %.049.le.us = trunc i16 %.049.in.us.us to i8
  %56 = add nsw i32 %.051.ph91161.us, 1
  %57 = sext i32 %.051.ph91161.us to i64
  %58 = getelementptr inbounds i8, ptr %2, i64 %57
  store i8 %.049.le.us, ptr %58, align 1, !tbaa !13
  br label %.outer86.backedge.us

.lr.ph.split.us.us:                               ; preds = %66, %.lr.ph.split.us.us.preheader
  %.053127.us.us = phi i32 [ %.053.ph90160.us, %.lr.ph.split.us.us.preheader ], [ %.154.us.us, %66 ]
  %.058126.us.us = phi i32 [ %.058.ph89159.us, %.lr.ph.split.us.us.preheader ], [ 1, %66 ]
  %.062125.us.us = phi i16 [ %.062.ph88158.us, %.lr.ph.split.us.us.preheader ], [ %.163.us.us, %66 ]
  %.064124.us.us = phi i8 [ %.064.ph87157.us, %.lr.ph.split.us.us.preheader ], [ %.165.us.us, %66 ]
  %.not79.us.us = icmp eq i8 %.064124.us.us, 0
  br i1 %.not79.us.us, label %65, label %59

59:                                               ; preds = %.lr.ph.split.us.us
  %60 = add nsw i32 %.053127.us.us, 1
  %61 = sext i32 %.053127.us.us to i64
  %62 = getelementptr inbounds i16, ptr %0, i64 %61
  %63 = load i16, ptr %62, align 2, !tbaa !4
  %64 = lshr i16 %63, 8
  br label %65

65:                                               ; preds = %59, %.lr.ph.split.us.us
  %.165.us.us = phi i8 [ 0, %59 ], [ 1, %.lr.ph.split.us.us ]
  %.163.us.us = phi i16 [ %63, %59 ], [ %.062125.us.us, %.lr.ph.split.us.us ]
  %.154.us.us = phi i32 [ %60, %59 ], [ %.053127.us.us, %.lr.ph.split.us.us ]
  %.049.in.us.us = phi i16 [ %64, %59 ], [ %.062125.us.us, %.lr.ph.split.us.us ]
  switch i32 %.058126.us.us, label %default.unreachable [
    i32 0, label %66
    i32 1, label %.split.us172
    i32 2, label %.preheader.us
  ]

66:                                               ; preds = %65
  %.049.mask81.us.us = and i16 %.049.in.us.us, 255
  %67 = icmp eq i16 %.049.mask81.us.us, 165
  br i1 %67, label %.lr.ph.split.us.us, label %.split141.us174

.thread:                                          ; preds = %43
  %68 = trunc nsw i64 %indvars.iv to i32
  br label %.sink.split

default.unreachable:                              ; preds = %65, %33
  unreachable

.loopexit:                                        ; preds = %.outer86.backedge.us, %.outer86.backedge, %.preheader85
  %.051.ph91.lcssa121.ph = phi i32 [ 0, %.preheader85 ], [ %.051.ph91.be, %.outer86.backedge ], [ %.051.ph91.be.us, %.outer86.backedge.us ]
  %.053.lcssa.ph = phi i32 [ 2, %.preheader85 ], [ %.154.us, %.outer86.backedge ], [ %.154.us.us, %.outer86.backedge.us ]
  %.not78 = icmp eq i32 %.053.lcssa.ph, %.070
  br i1 %.not78, label %69, label %.sink.split

.sink.split:                                      ; preds = %.outer, %.loopexit, %24, %.thread
  %.sink293 = phi i32 [ 15, %.thread ], [ 15, %24 ], [ 5, %.loopexit ], [ 5, %.outer ]
  %.066.ph = phi i32 [ %68, %.thread ], [ %22, %24 ], [ %.051.ph91.lcssa121.ph, %.loopexit ], [ 0, %.outer ]
  store i32 %.sink293, ptr %4, align 4, !tbaa !8
  br label %69

69:                                               ; preds = %.sink.split, %.loopexit, %15, %13, %5, %6
  %.066 = phi i32 [ 0, %6 ], [ 0, %5 ], [ 2, %13 ], [ %22, %15 ], [ %.051.ph91.lcssa121.ph, %.loopexit ], [ %.066.ph, %.sink.split ]
  ret i32 %.066
}